target datalayout = "e-m:e-p270:32:32-p271:32:32-p272:64:64-i64:64-i128:128-f80:128-n8:16:32:64-S128"
target triple = "x86_64-pc-linux-gnu"

%"class.std::basic_ostream" = type { ptr, %"class.std::basic_ios" }
%"class.std::basic_ios" = type { %"class.std::ios_base", ptr, i8, i8, ptr, ptr, ptr, ptr }
%"class.std::ios_base" = type { ptr, i64, i64, i32, i32, i32, ptr, %"struct.std::ios_base::_Words", [8 x %"struct.std::ios_base::_Words"], i32, ptr, %"class.std::locale" }
%"struct.std::ios_base::_Words" = type { ptr, i64 }
%"class.std::locale" = type { ptr }
%"class.std::basic_ifstream" = type { %"class.std::basic_istream.base", %"class.std::basic_filebuf", %"class.std::basic_ios" }
%"class.std::basic_istream.base" = type { ptr, i64 }
%"class.std::basic_filebuf" = type { %"class.std::basic_streambuf", %union.pthread_mutex_t, %"class.std::__basic_file", i32, %struct.__mbstate_t, %struct.__mbstate_t, %struct.__mbstate_t, ptr, i64, i8, i8, i8, i8, ptr, ptr, i8, ptr, ptr, i64, ptr, ptr }
%"class.std::basic_streambuf" = type { ptr, ptr, ptr, ptr, ptr, ptr, ptr, %"class.std::locale" }
%union.pthread_mutex_t = type { %struct.__pthread_mutex_s }
%struct.__pthread_mutex_s = type { i32, i32, i32, i32, i32, i16, i16, %struct.__pthread_internal_list }
%struct.__pthread_internal_list = type { ptr, ptr }
%"class.std::__basic_file" = type <{ ptr, i8, [7 x i8] }>
%struct.__mbstate_t = type { i32, %union.anon }
%union.anon = type { i32 }
%"class.std::basic_ofstream" = type { %"class.std::basic_ostream.base", %"class.std::basic_filebuf", %"class.std::basic_ios" }
%"class.std::basic_ostream.base" = type { ptr }

@_ZSt4cerr = external global %"class.std::basic_ostream", align 8
@.str = private unnamed_addr constant [38 x i8] c"usage: to_c_array <infile> <outfile>\0A\00", align 1
@.str.1 = private unnamed_addr constant [23 x i8] c"Can't open input file.\00", align 1
@.str.2 = private unnamed_addr constant [24 x i8] c"Can't open output file.\00", align 1
@.str.3 = private unnamed_addr constant [2 x i8] c",\00", align 1
@.str.4 = private unnamed_addr constant [3 x i8] c",0\00", align 1

; Function Attrs: inlinehint mustprogress nounwind uwtable
define linkonce_odr noundef i32 @_ZStanSt12_Ios_IostateS_(i32 noundef %0, i32 noundef %1) #9 comdat {
  %3 = alloca i32, align 4
  %4 = alloca i32, align 4
  store i32 %0, ptr %3, align 4, !tbaa !35
  store i32 %1, ptr %4, align 4, !tbaa !35
  %5 = load i32, ptr %3, align 4, !tbaa !35
  %6 = load i32, ptr %4, align 4, !tbaa !35
  %7 = and i32 %5, %6
  ret i32 %7
}

; Function Attrs: inlinehint mustprogress nounwind uwtable
define linkonce_odr noundef i32 @_ZStorSt12_Ios_IostateS_(i32 noundef %0, i32 noundef %1) #9 comdat {
  %3 = alloca i32, align 4
  %4 = alloca i32, align 4
  store i32 %0, ptr %3, align 4, !tbaa !35
  store i32 %1, ptr %4, align 4, !tbaa !35
  %5 = load i32, ptr %3, align 4, !tbaa !35
  %6 = load i32, ptr %4, align 4, !tbaa !35
  %7 = or i32 %5, %6
  ret i32 %7
}

; Function Attrs: mustprogress nounwind uwtable
define available_externally noundef i32 @_ZNKSt9basic_iosIcSt11char_traitsIcEE7rdstateEv(ptr noundef nonnull align 8 dereferenceable(264) %0) #8 align 2 {
  %2 = alloca ptr, align 8
  store ptr %0, ptr %2, align 8, !tbaa !33
  %3 = load ptr, ptr %2, align 8
  %4 = getelementptr inbounds nuw %"class.std::ios_base", ptr %3, i32 0, i32 5
  %5 = load i32, ptr %4, align 8, !tbaa !37
  ret i32 %5
}

; Function Attrs: mustprogress uwtable
define available_externally noundef zeroext i1 @_ZNKSt9basic_iosIcSt11char_traitsIcEE4failEv(ptr noundef nonnull align 8 dereferenceable(264) %0) #7 align 2 {
  %2 = alloca ptr, align 8
  store ptr %0, ptr %2, align 8, !tbaa !33
  %3 = load ptr, ptr %2, align 8
  %4 = call noundef i32 @_ZNKSt9basic_iosIcSt11char_traitsIcEE7rdstateEv(ptr noundef nonnull align 8 dereferenceable(264) %3)
  %5 = call noundef i32 @_ZStorSt12_Ios_IostateS_(i32 noundef 1, i32 noundef 4)
  %6 = call noundef i32 @_ZStanSt12_Ios_IostateS_(i32 noundef %4, i32 noundef %5)
  %7 = icmp ne i32 %6, 0
  ret i1 %7
}

; Function Attrs: mustprogress nounwind uwtable
define available_externally noundef zeroext i1 @_ZNKSt13basic_filebufIcSt11char_traitsIcEE7is_openEv(ptr noundef nonnull align 8 dereferenceable(240) %0) #8 align 2 {
  %2 = alloca ptr, align 8
  store ptr %0, ptr %2, align 8, !tbaa !63
  %3 = load ptr, ptr %2, align 8
  %4 = getelementptr inbounds nuw %"class.std::basic_filebuf", ptr %3, i32 0, i32 2
  %5 = call noundef zeroext i1 @_ZNKSt12__basic_fileIcE7is_openEv(ptr noundef nonnull align 8 dereferenceable(9) %4) #13
  ret i1 %5
}

; Function Attrs: mustprogress nounwind uwtable
define linkonce_odr noundef i64 @_ZNSt11char_traitsIcE6lengthEPKc(ptr noundef %0) #8 comdat align 2 {
  %2 = alloca ptr, align 8
  store ptr %0, ptr %2, align 8, !tbaa !14
  %3 = load ptr, ptr %2, align 8, !tbaa !14
  %4 = call i64 @strlen(ptr noundef %3) #3
  ret i64 %4
}

; Function Attrs: mustprogress uwtable
define available_externally void @_ZNSt9basic_iosIcSt11char_traitsIcEE8setstateESt12_Ios_Iostate(ptr noundef nonnull align 8 dereferenceable(264) %0, i32 noundef %1) #7 align 2 {
  %3 = alloca ptr, align 8
  %4 = alloca i32, align 4
  store ptr %0, ptr %3, align 8, !tbaa !33
  store i32 %1, ptr %4, align 4, !tbaa !35
  %5 = load ptr, ptr %3, align 8
  %6 = call noundef i32 @_ZNKSt9basic_iosIcSt11char_traitsIcEE7rdstateEv(ptr noundef nonnull align 8 dereferenceable(264) %5)
  %7 = load i32, ptr %4, align 4, !tbaa !35
  %8 = call noundef i32 @_ZStorSt12_Ios_IostateS_(i32 noundef %6, i32 noundef %7)
  call void @_ZNSt9basic_iosIcSt11char_traitsIcEE5clearESt12_Ios_Iostate(ptr noundef nonnull align 8 dereferenceable(264) %5, i32 noundef %8)
  ret void
}

; Function Attrs: mustprogress uwtable
define available_externally noundef zeroext i1 @_ZNKSt9basic_iosIcSt11char_traitsIcEEcvbEv(ptr noundef nonnull align 8 dereferenceable(264) %0) #7 align 2 {
  %2 = alloca ptr, align 8
  store ptr %0, ptr %2, align 8, !tbaa !33
  %3 = load ptr, ptr %2, align 8
  %4 = call noundef zeroext i1 @_ZNKSt9basic_iosIcSt11char_traitsIcEE4failEv(ptr noundef nonnull align 8 dereferenceable(264) %3)
  %5 = xor i1 %4, true
  ret i1 %5
}

; Function Attrs: mustprogress nounwind uwtable
define available_externally noundef zeroext i1 @_ZNSt14basic_ofstreamIcSt11char_traitsIcEE7is_openEv(ptr noundef nonnull align 8 dereferenceable(248) %0) #8 align 2 {
  %2 = alloca ptr, align 8
  store ptr %0, ptr %2, align 8, !tbaa !31
  %3 = load ptr, ptr %2, align 8
  %4 = getelementptr inbounds nuw %"class.std::basic_ofstream", ptr %3, i32 0, i32 1
  %5 = call noundef zeroext i1 @_ZNKSt13basic_filebufIcSt11char_traitsIcEE7is_openEv(ptr noundef nonnull align 8 dereferenceable(240) %4) #3
  ret i1 %5
}

; Function Attrs: mustprogress nounwind uwtable
define available_externally noundef zeroext i1 @_ZNSt14basic_ifstreamIcSt11char_traitsIcEE7is_openEv(ptr noundef nonnull align 8 dereferenceable(256) %0) #8 align 2 {
  %2 = alloca ptr, align 8
  store ptr %0, ptr %2, align 8, !tbaa !27
  %3 = load ptr, ptr %2, align 8
  %4 = getelementptr inbounds nuw %"class.std::basic_ifstream", ptr %3, i32 0, i32 1
  %5 = call noundef zeroext i1 @_ZNKSt13basic_filebufIcSt11char_traitsIcEE7is_openEv(ptr noundef nonnull align 8 dereferenceable(240) %4) #3
  ret i1 %5
}

; Function Attrs: inlinehint mustprogress uwtable
define available_externally noundef nonnull align 8 dereferenceable(8) ptr @_ZStlsISt11char_traitsIcEERSt13basic_ostreamIcT_ES5_PKc(ptr noundef nonnull align 8 dereferenceable(8) %0, ptr noundef %1) #5 {
  %3 = alloca ptr, align 8
  %4 = alloca ptr, align 8
  store ptr %0, ptr %3, align 8, !tbaa !25
  store ptr %1, ptr %4, align 8, !tbaa !14
  %5 = load ptr, ptr %4, align 8, !tbaa !14
  %6 = icmp ne ptr %5, null
  br i1 %6, label %13, label %7

7:                                                ; preds = %2
  %8 = load ptr, ptr %3, align 8, !tbaa !25
  %9 = load ptr, ptr %8, align 8, !tbaa !18
  %10 = getelementptr i8, ptr %9, i64 -24
  %11 = load i64, ptr %10, align 8
  %12 = getelementptr inbounds i8, ptr %8, i64 %11
  call void @_ZNSt9basic_iosIcSt11char_traitsIcEE8setstateESt12_Ios_Iostate(ptr noundef nonnull align 8 dereferenceable(264) %12, i32 noundef 1)
  br label %19

13:                                               ; preds = %2
  %14 = load ptr, ptr %3, align 8, !tbaa !25
  %15 = load ptr, ptr %4, align 8, !tbaa !14
  %16 = load ptr, ptr %4, align 8, !tbaa !14
  %17 = call noundef i64 @_ZNSt11char_traitsIcE6lengthEPKc(ptr noundef %16)
  %18 = call noundef nonnull align 8 dereferenceable(8) ptr @_ZSt16__ostream_insertIcSt11char_traitsIcEERSt13basic_ostreamIT_T0_ES6_PKS3_l(ptr noundef nonnull align 8 dereferenceable(8) %14, ptr noundef %15, i64 noundef %17)
  br label %19

19:                                               ; preds = %13, %7
  %20 = load ptr, ptr %3, align 8, !tbaa !25
  ret ptr %20
}

; Function Attrs: mustprogress norecurse uwtable
define noundef i32 @main(i32 noundef %0, ptr noundef %1) #4 personality ptr @__gxx_personality_v0 {
  %3 = alloca i32, align 4
  %4 = alloca i32, align 4
  %5 = alloca ptr, align 8
  %6 = alloca %"class.std::basic_ifstream", align 8
  %7 = alloca ptr, align 8
  %8 = alloca i32, align 4
  %9 = alloca i32, align 4
  %10 = alloca %"class.std::basic_ofstream", align 8
  %11 = alloca i8, align 1
  %12 = alloca i8, align 1
  store i32 0, ptr %3, align 4
  store i32 %0, ptr %4, align 4, !tbaa !6
  store ptr %1, ptr %5, align 8, !tbaa !10
  %13 = load i32, ptr %4, align 4, !tbaa !6
  %14 = icmp slt i32 %13, 3
  br i1 %14, label %15, label %17

15:                                               ; preds = %2
  %16 = call noundef nonnull align 8 dereferenceable(8) ptr @_ZStlsISt11char_traitsIcEERSt13basic_ostreamIcT_ES5_PKc(ptr noundef nonnull align 8 dereferenceable(8) @_ZSt4cerr, ptr noundef @.str)
  store i32 1, ptr %3, align 4
  br label %82

17:                                               ; preds = %2
  call void @llvm.lifetime.start.p0(i64 520, ptr %6) #3
  %18 = load ptr, ptr %5, align 8, !tbaa !10
  %19 = getelementptr inbounds ptr, ptr %18, i64 1
  %20 = load ptr, ptr %19, align 8, !tbaa !14
  call void @_ZNSt14basic_ifstreamIcSt11char_traitsIcEEC1EPKcSt13_Ios_Openmode(ptr noundef nonnull align 8 dereferenceable(256) %6, ptr noundef %20, i32 noundef 8)
  %21 = invoke noundef zeroext i1 @_ZNSt14basic_ifstreamIcSt11char_traitsIcEE7is_openEv(ptr noundef nonnull align 8 dereferenceable(256) %6)
          to label %22 unwind label %26

22:                                               ; preds = %17
  br i1 %21, label %30, label %23

23:                                               ; preds = %22
  %24 = invoke noundef nonnull align 8 dereferenceable(8) ptr @_ZStlsISt11char_traitsIcEERSt13basic_ostreamIcT_ES5_PKc(ptr noundef nonnull align 8 dereferenceable(8) @_ZSt4cerr, ptr noundef @.str.1)
          to label %25 unwind label %26

25:                                               ; preds = %23
  store i32 1, ptr %3, align 4
  store i32 1, ptr %9, align 4
  br label %80

26:                                               ; preds = %23, %17
  %27 = landingpad { ptr, i32 }
          cleanup
  %28 = extractvalue { ptr, i32 } %27, 0
  store ptr %28, ptr %7, align 8
  %29 = extractvalue { ptr, i32 } %27, 1
  store i32 %29, ptr %8, align 4
  br label %81

30:                                               ; preds = %22
  call void @llvm.lifetime.start.p0(i64 512, ptr %10) #3
  %31 = load ptr, ptr %5, align 8, !tbaa !10
  %32 = getelementptr inbounds ptr, ptr %31, i64 2
  %33 = load ptr, ptr %32, align 8, !tbaa !14
  invoke void @_ZNSt14basic_ofstreamIcSt11char_traitsIcEEC1EPKcSt13_Ios_Openmode(ptr noundef nonnull align 8 dereferenceable(248) %10, ptr noundef %33, i32 noundef 16)
          to label %34 unwind label %40

34:                                               ; preds = %30
  %35 = invoke noundef zeroext i1 @_ZNSt14basic_ofstreamIcSt11char_traitsIcEE7is_openEv(ptr noundef nonnull align 8 dereferenceable(248) %10)
          to label %36 unwind label %44

36:                                               ; preds = %34
  br i1 %35, label %48, label %37

37:                                               ; preds = %36
  %38 = invoke noundef nonnull align 8 dereferenceable(8) ptr @_ZStlsISt11char_traitsIcEERSt13basic_ostreamIcT_ES5_PKc(ptr noundef nonnull align 8 dereferenceable(8) @_ZSt4cerr, ptr noundef @.str.2)
          to label %39 unwind label %44

39:                                               ; preds = %37
  store i32 1, ptr %3, align 4
  store i32 1, ptr %9, align 4
  br label %77

40:                                               ; preds = %30
  %41 = landingpad { ptr, i32 }
          cleanup
  %42 = extractvalue { ptr, i32 } %41, 0
  store ptr %42, ptr %7, align 8
  %43 = extractvalue { ptr, i32 } %41, 1
  store i32 %43, ptr %8, align 4
  br label %79

44:                                               ; preds = %37, %34
  %45 = landingpad { ptr, i32 }
          cleanup
  %46 = extractvalue { ptr, i32 } %45, 0
  store ptr %46, ptr %7, align 8
  %47 = extractvalue { ptr, i32 } %45, 1
  store i32 %47, ptr %8, align 4
  br label %78

48:                                               ; preds = %36
  call void @llvm.lifetime.start.p0(i64 1, ptr %11) #3
  call void @llvm.lifetime.start.p0(i64 1, ptr %12) #3
  store i8 1, ptr %12, align 1, !tbaa !16
  br label %49

49:                                               ; preds = %73, %48
  %50 = invoke noundef nonnull align 8 dereferenceable(16) ptr @_ZNSi3getERc(ptr noundef nonnull align 8 dereferenceable(16) %6, ptr noundef nonnull align 1 dereferenceable(1) %11)
          to label %51 unwind label %62

51:                                               ; preds = %49
  %52 = load ptr, ptr %50, align 8, !tbaa !18
  %53 = getelementptr i8, ptr %52, i64 -24
  %54 = load i64, ptr %53, align 8
  %55 = getelementptr inbounds i8, ptr %50, i64 %54
  %56 = invoke noundef zeroext i1 @_ZNKSt9basic_iosIcSt11char_traitsIcEEcvbEv(ptr noundef nonnull align 8 dereferenceable(264) %55)
          to label %57 unwind label %62

57:                                               ; preds = %51
  br i1 %56, label %58, label %74

58:                                               ; preds = %57
  %59 = load i8, ptr %12, align 1, !tbaa !16, !range !20, !noundef !21
  %60 = trunc i8 %59 to i1
  br i1 %60, label %61, label %66

61:                                               ; preds = %58
  store i8 0, ptr %12, align 1, !tbaa !16
  br label %69

62:                                               ; preds = %74, %69, %66, %51, %49
  %63 = landingpad { ptr, i32 }
          cleanup
  %64 = extractvalue { ptr, i32 } %63, 0
  store ptr %64, ptr %7, align 8
  %65 = extractvalue { ptr, i32 } %63, 1
  store i32 %65, ptr %8, align 4
  call void @llvm.lifetime.end.p0(i64 1, ptr %12) #3
  call void @llvm.lifetime.end.p0(i64 1, ptr %11) #3
  br label %78

66:                                               ; preds = %58
  %67 = invoke noundef nonnull align 8 dereferenceable(8) ptr @_ZStlsISt11char_traitsIcEERSt13basic_ostreamIcT_ES5_PKc(ptr noundef nonnull align 8 dereferenceable(8) %10, ptr noundef @.str.3)
          to label %68 unwind label %62

68:                                               ; preds = %66
  br label %69

69:                                               ; preds = %68, %61
  %70 = load i8, ptr %11, align 1, !tbaa !22
  %71 = sext i8 %70 to i32
  %72 = invoke noundef nonnull align 8 dereferenceable(8) ptr @_ZNSolsEi(ptr noundef nonnull align 8 dereferenceable(8) %10, i32 noundef %71)
          to label %73 unwind label %62

73:                                               ; preds = %69
  br label %49, !llvm.loop !23

74:                                               ; preds = %57
  %75 = invoke noundef nonnull align 8 dereferenceable(8) ptr @_ZStlsISt11char_traitsIcEERSt13basic_ostreamIcT_ES5_PKc(ptr noundef nonnull align 8 dereferenceable(8) %10, ptr noundef @.str.4)
          to label %76 unwind label %62

76:                                               ; preds = %74
  store i32 0, ptr %3, align 4
  store i32 1, ptr %9, align 4
  call void @llvm.lifetime.end.p0(i64 1, ptr %12) #3
  call void @llvm.lifetime.end.p0(i64 1, ptr %11) #3
  br label %77

77:                                               ; preds = %76, %39
  call void @_ZNSt14basic_ofstreamIcSt11char_traitsIcEED1Ev(ptr noundef nonnull align 8 dereferenceable(248) %10) #3
  call void @llvm.lifetime.end.p0(i64 512, ptr %10) #3
  br label %80

78:                                               ; preds = %62, %44
  call void @_ZNSt14basic_ofstreamIcSt11char_traitsIcEED1Ev(ptr noundef nonnull align 8 dereferenceable(248) %10) #3
  br label %79

79:                                               ; preds = %78, %40
  call void @llvm.lifetime.end.p0(i64 512, ptr %10) #3
  br label %81

80:                                               ; preds = %77, %25
  call void @_ZNSt14basic_ifstreamIcSt11char_traitsIcEED1Ev(ptr noundef nonnull align 8 dereferenceable(256) %6) #3
  call void @llvm.lifetime.end.p0(i64 520, ptr %6) #3
  br label %82

81:                                               ; preds = %79, %26
  call void @_ZNSt14basic_ifstreamIcSt11char_traitsIcEED1Ev(ptr noundef nonnull align 8 dereferenceable(256) %6) #3
  call void @llvm.lifetime.end.p0(i64 520, ptr %6) #3
  br label %84

82:                                               ; preds = %80, %15
  %83 = load i32, ptr %3, align 4
  ret i32 %83

84:                                               ; preds = %81
  %85 = load ptr, ptr %7, align 8
  %86 = load i32, ptr %8, align 4
  %87 = insertvalue { ptr, i32 } poison, ptr %85, 0
  %88 = insertvalue { ptr, i32 } %87, i32 %86, 1
  resume { ptr, i32 } %88
}