; Function Attrs: mustprogress norecurse uwtable
define noundef range(i32 0, 2) i32 @main(i32 noundef %0, ptr noundef readonly captures(none) %1) local_unnamed_addr #3 personality ptr @__gxx_personality_v0 {
  %3 = alloca %"class.std::basic_ifstream", align 8
  %4 = alloca %"class.std::basic_ofstream", align 8
  %5 = alloca i8, align 1
  %6 = icmp slt i32 %0, 3
  br i1 %6, label %7, label %9

7:                                                ; preds = %2
  %8 = tail call noundef nonnull align 8 dereferenceable(8) ptr @_ZSt16__ostream_insertIcSt11char_traitsIcEERSt13basic_ostreamIT_T0_ES6_PKS3_l(ptr noundef nonnull align 8 dereferenceable(8) @_ZSt4cerr, ptr noundef nonnull @.str, i64 noundef 37)
  br label %53

9:                                                ; preds = %2
  call void @llvm.lifetime.start.p0(i64 520, ptr nonnull %3) #9
  %10 = getelementptr inbounds nuw i8, ptr %1, i64 8
  %11 = load ptr, ptr %10, align 8, !tbaa !6
  call void @_ZNSt14basic_ifstreamIcSt11char_traitsIcEEC1EPKcSt13_Ios_Openmode(ptr noundef nonnull align 8 dereferenceable(256) %3, ptr noundef %11, i32 noundef 8)
  %12 = getelementptr inbounds nuw i8, ptr %3, i64 120
  %13 = call noundef zeroext i1 @_ZNKSt12__basic_fileIcE7is_openEv(ptr noundef nonnull align 8 dereferenceable(9) %12) #10
  br i1 %13, label %18, label %14

14:                                               ; preds = %9
  %15 = invoke noundef nonnull align 8 dereferenceable(8) ptr @_ZSt16__ostream_insertIcSt11char_traitsIcEERSt13basic_ostreamIT_T0_ES6_PKS3_l(ptr noundef nonnull align 8 dereferenceable(8) @_ZSt4cerr, ptr noundef nonnull @.str.1, i64 noundef 22)
          to label %_ZStlsISt11char_traitsIcEERSt13basic_ostreamIcT_ES5_PKc.exit unwind label %16

16:                                               ; preds = %14
  %17 = landingpad { ptr, i32 }
          cleanup
  br label %52

18:                                               ; preds = %9
  call void @llvm.lifetime.start.p0(i64 512, ptr nonnull %4) #9
  %19 = getelementptr inbounds nuw i8, ptr %1, i64 16
  %20 = load ptr, ptr %19, align 8, !tbaa !6
  invoke void @_ZNSt14basic_ofstreamIcSt11char_traitsIcEEC1EPKcSt13_Ios_Openmode(ptr noundef nonnull align 8 dereferenceable(248) %4, ptr noundef %20, i32 noundef 16)
          to label %21 unwind label %26

21:                                               ; preds = %18
  %22 = getelementptr inbounds nuw i8, ptr %4, i64 112
  %23 = call noundef zeroext i1 @_ZNKSt12__basic_fileIcE7is_openEv(ptr noundef nonnull align 8 dereferenceable(9) %22) #10
  br i1 %23, label %30, label %24

24:                                               ; preds = %21
  %25 = invoke noundef nonnull align 8 dereferenceable(8) ptr @_ZSt16__ostream_insertIcSt11char_traitsIcEERSt13basic_ostreamIT_T0_ES6_PKS3_l(ptr noundef nonnull align 8 dereferenceable(8) @_ZSt4cerr, ptr noundef nonnull @.str.2, i64 noundef 23)
          to label %_ZStlsISt11char_traitsIcEERSt13basic_ostreamIcT_ES5_PKc.exit17 unwind label %28

26:                                               ; preds = %18
  %27 = landingpad { ptr, i32 }
          cleanup
  br label %51

28:                                               ; preds = %24
  %29 = landingpad { ptr, i32 }
          cleanup
  br label %50

30:                                               ; preds = %21
  call void @llvm.lifetime.start.p0(i64 1, ptr nonnull %5) #9
  br label %31

31:                                               ; preds = %_ZStlsISt11char_traitsIcEERSt13basic_ostreamIcT_ES5_PKc.exit18, %30
  %.0 = phi i1 [ true, %30 ], [ false, %_ZStlsISt11char_traitsIcEERSt13basic_ostreamIcT_ES5_PKc.exit18 ]
  %32 = invoke noundef nonnull align 8 dereferenceable(16) ptr @_ZNSi3getERc(ptr noundef nonnull align 8 dereferenceable(16) %3, ptr noundef nonnull align 1 dereferenceable(1) %5)
          to label %33 unwind label %.loopexit

33:                                               ; preds = %31
  %34 = load ptr, ptr %32, align 8, !tbaa !11
  %35 = getelementptr i8, ptr %34, i64 -24
  %36 = load i64, ptr %35, align 8
  %37 = getelementptr inbounds i8, ptr %32, i64 %36
  %38 = getelementptr inbounds nuw i8, ptr %37, i64 32
  %39 = load i32, ptr %38, align 8, !tbaa !13
  %40 = and i32 %39, 5
  %.not.i = icmp eq i32 %40, 0
  br i1 %.not.i, label %41, label %48

41:                                               ; preds = %33
  br i1 %.0, label %_ZStlsISt11char_traitsIcEERSt13basic_ostreamIcT_ES5_PKc.exit18, label %43

.loopexit:                                        ; preds = %31, %_ZStlsISt11char_traitsIcEERSt13basic_ostreamIcT_ES5_PKc.exit18, %43
  %lpad.loopexit = landingpad { ptr, i32 }
          cleanup
  br label %42

.loopexit.split-lp:                               ; preds = %48
  %lpad.loopexit.split-lp = landingpad { ptr, i32 }
          cleanup
  br label %42

42:                                               ; preds = %.loopexit.split-lp, %.loopexit
  %lpad.phi = phi { ptr, i32 } [ %lpad.loopexit, %.loopexit ], [ %lpad.loopexit.split-lp, %.loopexit.split-lp ]
  call void @llvm.lifetime.end.p0(i64 1, ptr nonnull %5) #9
  br label %50

43:                                               ; preds = %41
  %44 = invoke noundef nonnull align 8 dereferenceable(8) ptr @_ZSt16__ostream_insertIcSt11char_traitsIcEERSt13basic_ostreamIT_T0_ES6_PKS3_l(ptr noundef nonnull align 8 dereferenceable(8) %4, ptr noundef nonnull @.str.3, i64 noundef 1)
          to label %_ZStlsISt11char_traitsIcEERSt13basic_ostreamIcT_ES5_PKc.exit18 unwind label %.loopexit

_ZStlsISt11char_traitsIcEERSt13basic_ostreamIcT_ES5_PKc.exit18: ; preds = %43, %41
  %45 = load i8, ptr %5, align 1, !tbaa !24
  %46 = sext i8 %45 to i32
  %47 = invoke noundef nonnull align 8 dereferenceable(8) ptr @_ZNSolsEi(ptr noundef nonnull align 8 dereferenceable(8) %4, i32 noundef %46)
          to label %31 unwind label %.loopexit, !llvm.loop !25

48:                                               ; preds = %33
  %49 = invoke noundef nonnull align 8 dereferenceable(8) ptr @_ZSt16__ostream_insertIcSt11char_traitsIcEERSt13basic_ostreamIT_T0_ES6_PKS3_l(ptr noundef nonnull align 8 dereferenceable(8) %4, ptr noundef nonnull @.str.4, i64 noundef 2)
          to label %_ZStlsISt11char_traitsIcEERSt13basic_ostreamIcT_ES5_PKc.exit19 unwind label %.loopexit.split-lp

_ZStlsISt11char_traitsIcEERSt13basic_ostreamIcT_ES5_PKc.exit19: ; preds = %48
  call void @llvm.lifetime.end.p0(i64 1, ptr nonnull %5) #9
  br label %_ZStlsISt11char_traitsIcEERSt13basic_ostreamIcT_ES5_PKc.exit17

_ZStlsISt11char_traitsIcEERSt13basic_ostreamIcT_ES5_PKc.exit17: ; preds = %24, %_ZStlsISt11char_traitsIcEERSt13basic_ostreamIcT_ES5_PKc.exit19
  %.213 = phi i32 [ 0, %_ZStlsISt11char_traitsIcEERSt13basic_ostreamIcT_ES5_PKc.exit19 ], [ 1, %24 ]
  call void @_ZNSt14basic_ofstreamIcSt11char_traitsIcEED1Ev(ptr noundef nonnull align 8 dereferenceable(248) %4) #9
  call void @llvm.lifetime.end.p0(i64 512, ptr nonnull %4) #9
  br label %_ZStlsISt11char_traitsIcEERSt13basic_ostreamIcT_ES5_PKc.exit

50:                                               ; preds = %42, %28
  %.pn = phi { ptr, i32 } [ %lpad.phi, %42 ], [ %29, %28 ]
  call void @_ZNSt14basic_ofstreamIcSt11char_traitsIcEED1Ev(ptr noundef nonnull align 8 dereferenceable(248) %4) #9
  br label %51

51:                                               ; preds = %50, %26
  %.pn.pn = phi { ptr, i32 } [ %.pn, %50 ], [ %27, %26 ]
  call void @llvm.lifetime.end.p0(i64 512, ptr nonnull %4) #9
  br label %52

_ZStlsISt11char_traitsIcEERSt13basic_ostreamIcT_ES5_PKc.exit: ; preds = %14, %_ZStlsISt11char_traitsIcEERSt13basic_ostreamIcT_ES5_PKc.exit17
  %.112 = phi i32 [ %.213, %_ZStlsISt11char_traitsIcEERSt13basic_ostreamIcT_ES5_PKc.exit17 ], [ 1, %14 ]
  call void @_ZNSt14basic_ifstreamIcSt11char_traitsIcEED1Ev(ptr noundef nonnull align 8 dereferenceable(256) %3) #9
  call void @llvm.lifetime.end.p0(i64 520, ptr nonnull %3) #9
  br label %53

52:                                               ; preds = %51, %16
  %.pn.pn.pn = phi { ptr, i32 } [ %.pn.pn, %51 ], [ %17, %16 ]
  call void @_ZNSt14basic_ifstreamIcSt11char_traitsIcEED1Ev(ptr noundef nonnull align 8 dereferenceable(256) %3) #9
  call void @llvm.lifetime.end.p0(i64 520, ptr nonnull %3) #9
  resume { ptr, i32 } %.pn.pn.pn

53:                                               ; preds = %_ZStlsISt11char_traitsIcEERSt13basic_ostreamIcT_ES5_PKc.exit, %7
  %.011 = phi i32 [ 1, %7 ], [ %.112, %_ZStlsISt11char_traitsIcEERSt13basic_ostreamIcT_ES5_PKc.exit ]
  ret i32 %.011
}